; Function Attrs: mustprogress nounwind uwtable
define void @_ZN12b2ChainShapeD2Ev(ptr nocapture noundef nonnull align 8 dereferenceable(44) %this) unnamed_addr #0 align 2 personality ptr @__gxx_personality_v0 {
entry:
  store ptr getelementptr inbounds ({ [10 x ptr] }, ptr @_ZTV12b2ChainShape, i64 0, i32 0, i64 2), ptr %this, align 8
  %m_vertices.i = getelementptr inbounds i8, ptr %this, i64 16
  %0 = load ptr, ptr %m_vertices.i, align 8
  invoke void @_Z14b2Free_DefaultPv(ptr noundef %0)
          to label %invoke.cont unwind label %terminate.lpad

invoke.cont:                                      ; preds = %entry
  store ptr null, ptr %m_vertices.i, align 8
  %m_count.i = getelementptr inbounds i8, ptr %this, i64 24
  store i32 0, ptr %m_count.i, align 8
  ret void

terminate.lpad:                                   ; preds = %entry
  %1 = landingpad { ptr, i32 }
          catch ptr null
  %2 = extractvalue { ptr, i32 } %1, 0
  tail call void @__clang_call_terminate(ptr %2) #13
  unreachable
}